target datalayout = "e-m:e-p270:32:32-p271:32:32-p272:64:64-i64:64-i128:128-f80:128-n8:16:32:64-S128"
target triple = "x86_64-pc-linux-gnu"

@proto_ip = internal global i32 0, align 4
@.str.147 = private unnamed_addr constant [9 x i8] c"ip.proto\00", align 1
@.str.324 = private unnamed_addr constant [10 x i8] c"ip.option\00", align 1
@ip_handle = internal global ptr null, align 8
@ip_cap_handle = internal global ptr null, align 8
@proto_ip_option_security = internal global i32 0, align 4
@proto_ip_option_route = internal global i32 0, align 4
@proto_ip_option_timestamp = internal global i32 0, align 4
@proto_ip_option_ext_security = internal global i32 0, align 4
@proto_ip_option_cipso = internal global i32 0, align 4
@proto_ip_option_record_route = internal global i32 0, align 4
@proto_ip_option_sid = internal global i32 0, align 4
@proto_ip_option_source_route = internal global i32 0, align 4
@proto_ip_option_mtu_probe = internal global i32 0, align 4
@proto_ip_option_mtu_reply = internal global i32 0, align 4
@proto_ip_option_traceroute = internal global i32 0, align 4
@proto_ip_option_routeralert = internal global i32 0, align 4
@proto_ip_option_sdb = internal global i32 0, align 4
@proto_ip_option_qs = internal global i32 0, align 4
@.str.400 = private unnamed_addr constant [5 x i8] c"ipv6\00", align 1
@ipv6_handle = internal global ptr null, align 8
@.str.401 = private unnamed_addr constant [10 x i8] c"ethertype\00", align 1
@.str.402 = private unnamed_addr constant [15 x i8] c"erf.types.type\00", align 1
@.str.403 = private unnamed_addr constant [13 x i8] c"ppp.protocol\00", align 1
@.str.404 = private unnamed_addr constant [10 x i8] c"gre.proto\00", align 1
@.str.405 = private unnamed_addr constant [9 x i8] c"llc.dsap\00", align 1
@.str.406 = private unnamed_addr constant [10 x i8] c"null.type\00", align 1
@.str.407 = private unnamed_addr constant [15 x i8] c"chdlc.protocol\00", align 1
@.str.408 = private unnamed_addr constant [11 x i8] c"osinl.excl\00", align 1
@.str.409 = private unnamed_addr constant [9 x i8] c"fr.nlpid\00", align 1
@.str.410 = private unnamed_addr constant [9 x i8] c"x.25.spi\00", align 1
@.str.411 = private unnamed_addr constant [19 x i8] c"arcnet.protocol_id\00", align 1
@.str.412 = private unnamed_addr constant [9 x i8] c"ax25.pid\00", align 1
@.str.413 = private unnamed_addr constant [14 x i8] c"juniper.proto\00", align 1
@.str.414 = private unnamed_addr constant [19 x i8] c"pwach.channel_type\00", align 1
@.str.415 = private unnamed_addr constant [10 x i8] c"mcc.proto\00", align 1
@.str.416 = private unnamed_addr constant [26 x i8] c"sflow_245.header_protocol\00", align 1
@.str.417 = private unnamed_addr constant [13 x i8] c"l2tp.pw_type\00", align 1
@.str.418 = private unnamed_addr constant [9 x i8] c"udp.port\00", align 1
@.str.419 = private unnamed_addr constant [13 x i8] c"pcli.payload\00", align 1
@.str.420 = private unnamed_addr constant [11 x i8] c"wtap_encap\00", align 1
@.str.421 = private unnamed_addr constant [4 x i8] c"enc\00", align 1
@.str.422 = private unnamed_addr constant [17 x i8] c"vxlan.next_proto\00", align 1
@.str.423 = private unnamed_addr constant [15 x i8] c"nsh.next_proto\00", align 1
@.str.424 = private unnamed_addr constant [5 x i8] c"tipc\00", align 1
@.str.425 = private unnamed_addr constant [13 x i8] c"IP over TIPC\00", align 1
@.str.426 = private unnamed_addr constant [8 x i8] c"ip_tipc\00", align 1
@.str.427 = private unnamed_addr constant [16 x i8] c"zbee_zcl_se.tun\00", align 1
@.str.428 = private unnamed_addr constant [28 x i8] c"IP over ZigBee SE Tunneling\00", align 1
@.str.429 = private unnamed_addr constant [19 x i8] c"ip_zbee_zcl_se.tun\00", align 1
@.str.430 = private unnamed_addr constant [9 x i8] c"gtp.tpdu\00", align 1
@.str.431 = private unnamed_addr constant [12 x i8] c"IP over GTP\00", align 1
@.str.432 = private unnamed_addr constant [12 x i8] c"ip_gtp.tpdu\00", align 1
@.str.433 = private unnamed_addr constant [9 x i8] c"ppp_hdlc\00", align 1
@.str.434 = private unnamed_addr constant [9 x i8] c"null.bsd\00", align 1
@.str.435 = private unnamed_addr constant [5 x i8] c"clip\00", align 1

; Function Attrs: null_pointer_is_valid sspstrong uwtable
define hidden void @proto_reg_handoff_ip() #1 {
  %1 = alloca ptr, align 8
  %2 = alloca ptr, align 8
  %3 = alloca i32, align 4
  call void @llvm.lifetime.start.p0(i64 8, ptr %1) #12
  call void @llvm.lifetime.start.p0(i64 8, ptr %2) #12
  call void @llvm.lifetime.start.p0(i64 4, ptr %3) #12
  %4 = call ptr @find_dissector(ptr noundef @.str.400)
  store ptr %4, ptr @ipv6_handle, align 8
  %5 = load i32, ptr @proto_ip, align 4
  %6 = call ptr @create_dissector_handle(ptr noundef @dissect_ip_v4, i32 noundef %5)
  store ptr %6, ptr %1, align 8
  %7 = load ptr, ptr %1, align 8
  call void @dissector_add_uint(ptr noundef @.str.401, i32 noundef 2048, ptr noundef %7)
  %8 = load ptr, ptr @ip_handle, align 8
  call void @dissector_add_uint(ptr noundef @.str.402, i32 noundef 22, ptr noundef %8)
  %9 = load ptr, ptr @ip_handle, align 8
  call void @dissector_add_uint(ptr noundef @.str.403, i32 noundef 33, ptr noundef %9)
  %10 = load ptr, ptr @ip_handle, align 8
  call void @dissector_add_uint(ptr noundef @.str.403, i32 noundef 2048, ptr noundef %10)
  %11 = load ptr, ptr @ip_handle, align 8
  call void @dissector_add_uint(ptr noundef @.str.404, i32 noundef 2048, ptr noundef %11)
  %12 = load ptr, ptr @ip_handle, align 8
  call void @dissector_add_uint(ptr noundef @.str.404, i32 noundef 34878, ptr noundef %12)
  %13 = load ptr, ptr @ip_handle, align 8
  call void @dissector_add_uint(ptr noundef @.str.405, i32 noundef 6, ptr noundef %13)
  %14 = load ptr, ptr @ip_handle, align 8
  call void @dissector_add_uint(ptr noundef @.str.147, i32 noundef 4, ptr noundef %14)
  %15 = load ptr, ptr @ip_handle, align 8
  call void @dissector_add_uint(ptr noundef @.str.406, i32 noundef 2, ptr noundef %15)
  %16 = load ptr, ptr @ip_handle, align 8
  call void @dissector_add_uint(ptr noundef @.str.407, i32 noundef 2048, ptr noundef %16)
  %17 = load ptr, ptr @ip_handle, align 8
  call void @dissector_add_uint(ptr noundef @.str.408, i32 noundef 204, ptr noundef %17)
  %18 = load ptr, ptr @ip_handle, align 8
  call void @dissector_add_uint(ptr noundef @.str.409, i32 noundef 204, ptr noundef %18)
  %19 = load ptr, ptr @ip_handle, align 8
  call void @dissector_add_uint(ptr noundef @.str.410, i32 noundef 204, ptr noundef %19)
  %20 = load ptr, ptr @ip_handle, align 8
  call void @dissector_add_uint(ptr noundef @.str.411, i32 noundef 240, ptr noundef %20)
  %21 = load ptr, ptr @ip_handle, align 8
  call void @dissector_add_uint(ptr noundef @.str.411, i32 noundef 212, ptr noundef %21)
  %22 = load ptr, ptr @ip_handle, align 8
  call void @dissector_add_uint(ptr noundef @.str.412, i32 noundef 204, ptr noundef %22)
  %23 = load ptr, ptr @ip_handle, align 8
  call void @dissector_add_uint(ptr noundef @.str.413, i32 noundef 2, ptr noundef %23)
  %24 = load ptr, ptr @ip_handle, align 8
  call void @dissector_add_uint(ptr noundef @.str.413, i32 noundef 3, ptr noundef %24)
  %25 = load ptr, ptr @ip_handle, align 8
  call void @dissector_add_uint(ptr noundef @.str.414, i32 noundef 33, ptr noundef %25)
  %26 = load ptr, ptr @ip_handle, align 8
  call void @dissector_add_uint(ptr noundef @.str.415, i32 noundef 33, ptr noundef %26)
  %27 = load ptr, ptr @ip_handle, align 8
  call void @dissector_add_uint(ptr noundef @.str.416, i32 noundef 11, ptr noundef %27)
  %28 = load ptr, ptr @ip_handle, align 8
  call void @dissector_add_uint(ptr noundef @.str.417, i32 noundef 11, ptr noundef %28)
  %29 = load ptr, ptr @ip_handle, align 8
  call void @dissector_add_for_decode_as_with_preference(ptr noundef @.str.418, ptr noundef %29)
  %30 = load ptr, ptr @ip_handle, align 8
  call void @dissector_add_for_decode_as(ptr noundef @.str.419, ptr noundef %30)
  %31 = load ptr, ptr @ip_handle, align 8
  call void @dissector_add_uint(ptr noundef @.str.420, i32 noundef 129, ptr noundef %31)
  %32 = load ptr, ptr @ip_handle, align 8
  call void @dissector_add_uint(ptr noundef @.str.421, i32 noundef 2, ptr noundef %32)
  %33 = load ptr, ptr @ip_handle, align 8
  call void @dissector_add_uint(ptr noundef @.str.422, i32 noundef 1, ptr noundef %33)
  %34 = load ptr, ptr @ip_handle, align 8
  call void @dissector_add_uint(ptr noundef @.str.423, i32 noundef 1, ptr noundef %34)
  %35 = load i32, ptr @proto_ip, align 4
  call void @heur_dissector_add(ptr noundef @.str.424, ptr noundef @dissect_ip_heur, ptr noundef @.str.425, ptr noundef @.str.426, i32 noundef %35, i32 noundef 1)
  %36 = load i32, ptr @proto_ip, align 4
  call void @heur_dissector_add(ptr noundef @.str.427, ptr noundef @dissect_ip_heur, ptr noundef @.str.428, ptr noundef @.str.429, i32 noundef %36, i32 noundef 1)
  %37 = load i32, ptr @proto_ip, align 4
  call void @heur_dissector_add(ptr noundef @.str.430, ptr noundef @dissect_ip_heur, ptr noundef @.str.431, ptr noundef @.str.432, i32 noundef %37, i32 noundef 1)
  %38 = load ptr, ptr @ip_cap_handle, align 8
  call void @capture_dissector_add_uint(ptr noundef @.str.401, i32 noundef 2048, ptr noundef %38)
  %39 = load ptr, ptr @ip_cap_handle, align 8
  call void @capture_dissector_add_uint(ptr noundef @.str.412, i32 noundef 204, ptr noundef %39)
  %40 = load ptr, ptr @ip_cap_handle, align 8
  call void @capture_dissector_add_uint(ptr noundef @.str.421, i32 noundef 2, ptr noundef %40)
  %41 = load ptr, ptr @ip_cap_handle, align 8
  call void @capture_dissector_add_uint(ptr noundef @.str.433, i32 noundef 33, ptr noundef %41)
  %42 = load ptr, ptr @ip_cap_handle, align 8
  call void @capture_dissector_add_uint(ptr noundef @.str.405, i32 noundef 6, ptr noundef %42)
  %43 = load ptr, ptr @ip_cap_handle, align 8
  call void @capture_dissector_add_uint(ptr noundef @.str.434, i32 noundef 2, ptr noundef %43)
  %44 = load ptr, ptr @ip_cap_handle, align 8
  call void @capture_dissector_add_uint(ptr noundef @.str.409, i32 noundef 204, ptr noundef %44)
  %45 = load i32, ptr @proto_ip_option_security, align 4
  %46 = call ptr @create_dissector_handle(ptr noundef @dissect_ipopt_security, i32 noundef %45)
  call void @dissector_add_uint(ptr noundef @.str.324, i32 noundef 130, ptr noundef %46)
  %47 = load i32, ptr @proto_ip_option_route, align 4
  %48 = call ptr @create_dissector_handle(ptr noundef @dissect_ipopt_loose_route, i32 noundef %47)
  call void @dissector_add_uint(ptr noundef @.str.324, i32 noundef 131, ptr noundef %48)
  %49 = load i32, ptr @proto_ip_option_timestamp, align 4
  %50 = call ptr @create_dissector_handle(ptr noundef @dissect_ipopt_timestamp, i32 noundef %49)
  call void @dissector_add_uint(ptr noundef @.str.324, i32 noundef 68, ptr noundef %50)
  %51 = load i32, ptr @proto_ip_option_ext_security, align 4
  %52 = call ptr @create_dissector_handle(ptr noundef @dissect_ipopt_ext_security, i32 noundef %51)
  call void @dissector_add_uint(ptr noundef @.str.324, i32 noundef 133, ptr noundef %52)
  %53 = load i32, ptr @proto_ip_option_cipso, align 4
  %54 = call ptr @create_dissector_handle(ptr noundef @dissect_ipopt_cipso, i32 noundef %53)
  call void @dissector_add_uint(ptr noundef @.str.324, i32 noundef 134, ptr noundef %54)
  %55 = load i32, ptr @proto_ip_option_record_route, align 4
  %56 = call ptr @create_dissector_handle(ptr noundef @dissect_ipopt_record_route, i32 noundef %55)
  call void @dissector_add_uint(ptr noundef @.str.324, i32 noundef 7, ptr noundef %56)
  %57 = load i32, ptr @proto_ip_option_sid, align 4
  %58 = call ptr @create_dissector_handle(ptr noundef @dissect_ipopt_sid, i32 noundef %57)
  call void @dissector_add_uint(ptr noundef @.str.324, i32 noundef 136, ptr noundef %58)
  %59 = load i32, ptr @proto_ip_option_source_route, align 4
  %60 = call ptr @create_dissector_handle(ptr noundef @dissect_ipopt_source_route, i32 noundef %59)
  call void @dissector_add_uint(ptr noundef @.str.324, i32 noundef 137, ptr noundef %60)
  %61 = load i32, ptr @proto_ip_option_mtu_probe, align 4
  %62 = call ptr @create_dissector_handle(ptr noundef @dissect_ipopt_mtu_probe, i32 noundef %61)
  call void @dissector_add_uint(ptr noundef @.str.324, i32 noundef 11, ptr noundef %62)
  %63 = load i32, ptr @proto_ip_option_mtu_reply, align 4
  %64 = call ptr @create_dissector_handle(ptr noundef @dissect_ipopt_mtu_reply, i32 noundef %63)
  call void @dissector_add_uint(ptr noundef @.str.324, i32 noundef 12, ptr noundef %64)
  %65 = load i32, ptr @proto_ip_option_traceroute, align 4
  %66 = call ptr @create_dissector_handle(ptr noundef @dissect_ipopt_tr, i32 noundef %65)
  call void @dissector_add_uint(ptr noundef @.str.324, i32 noundef 82, ptr noundef %66)
  %67 = load i32, ptr @proto_ip_option_routeralert, align 4
  %68 = call ptr @create_dissector_handle(ptr noundef @dissect_ipopt_ra, i32 noundef %67)
  call void @dissector_add_uint(ptr noundef @.str.324, i32 noundef 148, ptr noundef %68)
  %69 = load i32, ptr @proto_ip_option_sdb, align 4
  %70 = call ptr @create_dissector_handle(ptr noundef @dissect_ipopt_sdb, i32 noundef %69)
  call void @dissector_add_uint(ptr noundef @.str.324, i32 noundef 149, ptr noundef %70)
  %71 = load i32, ptr @proto_ip_option_qs, align 4
  %72 = call ptr @create_dissector_handle(ptr noundef @dissect_ipopt_qs, i32 noundef %71)
  call void @dissector_add_uint(ptr noundef @.str.324, i32 noundef 25, ptr noundef %72)
  %73 = call i32 @proto_get_id_by_filter_name(ptr noundef @.str.435)
  store i32 %73, ptr %3, align 4
  %74 = load i32, ptr %3, align 4
  %75 = call ptr @register_capture_dissector(ptr noundef @.str.435, ptr noundef @capture_ip, i32 noundef %74)
  store ptr %75, ptr %2, align 8
  %76 = load ptr, ptr %2, align 8
  call void @capture_dissector_add_uint(ptr noundef @.str.420, i32 noundef 11, ptr noundef %76)
  call void @llvm.lifetime.end.p0(i64 4, ptr %3) #12
  call void @llvm.lifetime.end.p0(i64 8, ptr %2) #12
  call void @llvm.lifetime.end.p0(i64 8, ptr %1) #12
  ret void
}