; Function Attrs: null_pointer_is_valid sspstrong uwtable
define hidden void @proto_reg_handoff_ip() local_unnamed_addr #1 {
  %1 = tail call ptr @find_dissector(ptr noundef nonnull @.str.400)
  store ptr %1, ptr @ipv6_handle, align 8
  %2 = load i32, ptr @proto_ip, align 4
  %3 = tail call ptr @create_dissector_handle(ptr noundef nonnull @dissect_ip_v4, i32 noundef %2)
  tail call void @dissector_add_uint(ptr noundef nonnull @.str.401, i32 noundef 2048, ptr noundef %3)
  %4 = load ptr, ptr @ip_handle, align 8
  tail call void @dissector_add_uint(ptr noundef nonnull @.str.402, i32 noundef 22, ptr noundef %4)
  %5 = load ptr, ptr @ip_handle, align 8
  tail call void @dissector_add_uint(ptr noundef nonnull @.str.403, i32 noundef 33, ptr noundef %5)
  %6 = load ptr, ptr @ip_handle, align 8
  tail call void @dissector_add_uint(ptr noundef nonnull @.str.403, i32 noundef 2048, ptr noundef %6)
  %7 = load ptr, ptr @ip_handle, align 8
  tail call void @dissector_add_uint(ptr noundef nonnull @.str.404, i32 noundef 2048, ptr noundef %7)
  %8 = load ptr, ptr @ip_handle, align 8
  tail call void @dissector_add_uint(ptr noundef nonnull @.str.404, i32 noundef 34878, ptr noundef %8)
  %9 = load ptr, ptr @ip_handle, align 8
  tail call void @dissector_add_uint(ptr noundef nonnull @.str.405, i32 noundef 6, ptr noundef %9)
  %10 = load ptr, ptr @ip_handle, align 8
  tail call void @dissector_add_uint(ptr noundef nonnull @.str.147, i32 noundef 4, ptr noundef %10)
  %11 = load ptr, ptr @ip_handle, align 8
  tail call void @dissector_add_uint(ptr noundef nonnull @.str.406, i32 noundef 2, ptr noundef %11)
  %12 = load ptr, ptr @ip_handle, align 8
  tail call void @dissector_add_uint(ptr noundef nonnull @.str.407, i32 noundef 2048, ptr noundef %12)
  %13 = load ptr, ptr @ip_handle, align 8
  tail call void @dissector_add_uint(ptr noundef nonnull @.str.408, i32 noundef 204, ptr noundef %13)
  %14 = load ptr, ptr @ip_handle, align 8
  tail call void @dissector_add_uint(ptr noundef nonnull @.str.409, i32 noundef 204, ptr noundef %14)
  %15 = load ptr, ptr @ip_handle, align 8
  tail call void @dissector_add_uint(ptr noundef nonnull @.str.410, i32 noundef 204, ptr noundef %15)
  %16 = load ptr, ptr @ip_handle, align 8
  tail call void @dissector_add_uint(ptr noundef nonnull @.str.411, i32 noundef 240, ptr noundef %16)
  %17 = load ptr, ptr @ip_handle, align 8
  tail call void @dissector_add_uint(ptr noundef nonnull @.str.411, i32 noundef 212, ptr noundef %17)
  %18 = load ptr, ptr @ip_handle, align 8
  tail call void @dissector_add_uint(ptr noundef nonnull @.str.412, i32 noundef 204, ptr noundef %18)
  %19 = load ptr, ptr @ip_handle, align 8
  tail call void @dissector_add_uint(ptr noundef nonnull @.str.413, i32 noundef 2, ptr noundef %19)
  %20 = load ptr, ptr @ip_handle, align 8
  tail call void @dissector_add_uint(ptr noundef nonnull @.str.413, i32 noundef 3, ptr noundef %20)
  %21 = load ptr, ptr @ip_handle, align 8
  tail call void @dissector_add_uint(ptr noundef nonnull @.str.414, i32 noundef 33, ptr noundef %21)
  %22 = load ptr, ptr @ip_handle, align 8
  tail call void @dissector_add_uint(ptr noundef nonnull @.str.415, i32 noundef 33, ptr noundef %22)
  %23 = load ptr, ptr @ip_handle, align 8
  tail call void @dissector_add_uint(ptr noundef nonnull @.str.416, i32 noundef 11, ptr noundef %23)
  %24 = load ptr, ptr @ip_handle, align 8
  tail call void @dissector_add_uint(ptr noundef nonnull @.str.417, i32 noundef 11, ptr noundef %24)
  %25 = load ptr, ptr @ip_handle, align 8
  tail call void @dissector_add_for_decode_as_with_preference(ptr noundef nonnull @.str.418, ptr noundef %25)
  %26 = load ptr, ptr @ip_handle, align 8
  tail call void @dissector_add_for_decode_as(ptr noundef nonnull @.str.419, ptr noundef %26)
  %27 = load ptr, ptr @ip_handle, align 8
  tail call void @dissector_add_uint(ptr noundef nonnull @.str.420, i32 noundef 129, ptr noundef %27)
  %28 = load ptr, ptr @ip_handle, align 8
  tail call void @dissector_add_uint(ptr noundef nonnull @.str.421, i32 noundef 2, ptr noundef %28)
  %29 = load ptr, ptr @ip_handle, align 8
  tail call void @dissector_add_uint(ptr noundef nonnull @.str.422, i32 noundef 1, ptr noundef %29)
  %30 = load ptr, ptr @ip_handle, align 8
  tail call void @dissector_add_uint(ptr noundef nonnull @.str.423, i32 noundef 1, ptr noundef %30)
  %31 = load i32, ptr @proto_ip, align 4
  tail call void @heur_dissector_add(ptr noundef nonnull @.str.424, ptr noundef nonnull @dissect_ip_heur, ptr noundef nonnull @.str.425, ptr noundef nonnull @.str.426, i32 noundef %31, i32 noundef 1)
  %32 = load i32, ptr @proto_ip, align 4
  tail call void @heur_dissector_add(ptr noundef nonnull @.str.427, ptr noundef nonnull @dissect_ip_heur, ptr noundef nonnull @.str.428, ptr noundef nonnull @.str.429, i32 noundef %32, i32 noundef 1)
  %33 = load i32, ptr @proto_ip, align 4
  tail call void @heur_dissector_add(ptr noundef nonnull @.str.430, ptr noundef nonnull @dissect_ip_heur, ptr noundef nonnull @.str.431, ptr noundef nonnull @.str.432, i32 noundef %33, i32 noundef 1)
  %34 = load ptr, ptr @ip_cap_handle, align 8
  tail call void @capture_dissector_add_uint(ptr noundef nonnull @.str.401, i32 noundef 2048, ptr noundef %34)
  %35 = load ptr, ptr @ip_cap_handle, align 8
  tail call void @capture_dissector_add_uint(ptr noundef nonnull @.str.412, i32 noundef 204, ptr noundef %35)
  %36 = load ptr, ptr @ip_cap_handle, align 8
  tail call void @capture_dissector_add_uint(ptr noundef nonnull @.str.421, i32 noundef 2, ptr noundef %36)
  %37 = load ptr, ptr @ip_cap_handle, align 8
  tail call void @capture_dissector_add_uint(ptr noundef nonnull @.str.433, i32 noundef 33, ptr noundef %37)
  %38 = load ptr, ptr @ip_cap_handle, align 8
  tail call void @capture_dissector_add_uint(ptr noundef nonnull @.str.405, i32 noundef 6, ptr noundef %38)
  %39 = load ptr, ptr @ip_cap_handle, align 8
  tail call void @capture_dissector_add_uint(ptr noundef nonnull @.str.434, i32 noundef 2, ptr noundef %39)
  %40 = load ptr, ptr @ip_cap_handle, align 8
  tail call void @capture_dissector_add_uint(ptr noundef nonnull @.str.409, i32 noundef 204, ptr noundef %40)
  %41 = load i32, ptr @proto_ip_option_security, align 4
  %42 = tail call ptr @create_dissector_handle(ptr noundef nonnull @dissect_ipopt_security, i32 noundef %41)
  tail call void @dissector_add_uint(ptr noundef nonnull @.str.324, i32 noundef 130, ptr noundef %42)
  %43 = load i32, ptr @proto_ip_option_route, align 4
  %44 = tail call ptr @create_dissector_handle(ptr noundef nonnull @dissect_ipopt_loose_route, i32 noundef %43)
  tail call void @dissector_add_uint(ptr noundef nonnull @.str.324, i32 noundef 131, ptr noundef %44)
  %45 = load i32, ptr @proto_ip_option_timestamp, align 4
  %46 = tail call ptr @create_dissector_handle(ptr noundef nonnull @dissect_ipopt_timestamp, i32 noundef %45)
  tail call void @dissector_add_uint(ptr noundef nonnull @.str.324, i32 noundef 68, ptr noundef %46)
  %47 = load i32, ptr @proto_ip_option_ext_security, align 4
  %48 = tail call ptr @create_dissector_handle(ptr noundef nonnull @dissect_ipopt_ext_security, i32 noundef %47)
  tail call void @dissector_add_uint(ptr noundef nonnull @.str.324, i32 noundef 133, ptr noundef %48)
  %49 = load i32, ptr @proto_ip_option_cipso, align 4
  %50 = tail call ptr @create_dissector_handle(ptr noundef nonnull @dissect_ipopt_cipso, i32 noundef %49)
  tail call void @dissector_add_uint(ptr noundef nonnull @.str.324, i32 noundef 134, ptr noundef %50)
  %51 = load i32, ptr @proto_ip_option_record_route, align 4
  %52 = tail call ptr @create_dissector_handle(ptr noundef nonnull @dissect_ipopt_record_route, i32 noundef %51)
  tail call void @dissector_add_uint(ptr noundef nonnull @.str.324, i32 noundef 7, ptr noundef %52)
  %53 = load i32, ptr @proto_ip_option_sid, align 4
  %54 = tail call ptr @create_dissector_handle(ptr noundef nonnull @dissect_ipopt_sid, i32 noundef %53)
  tail call void @dissector_add_uint(ptr noundef nonnull @.str.324, i32 noundef 136, ptr noundef %54)
  %55 = load i32, ptr @proto_ip_option_source_route, align 4
  %56 = tail call ptr @create_dissector_handle(ptr noundef nonnull @dissect_ipopt_source_route, i32 noundef %55)
  tail call void @dissector_add_uint(ptr noundef nonnull @.str.324, i32 noundef 137, ptr noundef %56)
  %57 = load i32, ptr @proto_ip_option_mtu_probe, align 4
  %58 = tail call ptr @create_dissector_handle(ptr noundef nonnull @dissect_ipopt_mtu_probe, i32 noundef %57)
  tail call void @dissector_add_uint(ptr noundef nonnull @.str.324, i32 noundef 11, ptr noundef %58)
  %59 = load i32, ptr @proto_ip_option_mtu_reply, align 4
  %60 = tail call ptr @create_dissector_handle(ptr noundef nonnull @dissect_ipopt_mtu_reply, i32 noundef %59)
  tail call void @dissector_add_uint(ptr noundef nonnull @.str.324, i32 noundef 12, ptr noundef %60)
  %61 = load i32, ptr @proto_ip_option_traceroute, align 4
  %62 = tail call ptr @create_dissector_handle(ptr noundef nonnull @dissect_ipopt_tr, i32 noundef %61)
  tail call void @dissector_add_uint(ptr noundef nonnull @.str.324, i32 noundef 82, ptr noundef %62)
  %63 = load i32, ptr @proto_ip_option_routeralert, align 4
  %64 = tail call ptr @create_dissector_handle(ptr noundef nonnull @dissect_ipopt_ra, i32 noundef %63)
  tail call void @dissector_add_uint(ptr noundef nonnull @.str.324, i32 noundef 148, ptr noundef %64)
  %65 = load i32, ptr @proto_ip_option_sdb, align 4
  %66 = tail call ptr @create_dissector_handle(ptr noundef nonnull @dissect_ipopt_sdb, i32 noundef %65)
  tail call void @dissector_add_uint(ptr noundef nonnull @.str.324, i32 noundef 149, ptr noundef %66)
  %67 = load i32, ptr @proto_ip_option_qs, align 4
  %68 = tail call ptr @create_dissector_handle(ptr noundef nonnull @dissect_ipopt_qs, i32 noundef %67)
  tail call void @dissector_add_uint(ptr noundef nonnull @.str.324, i32 noundef 25, ptr noundef %68)
  %69 = tail call i32 @proto_get_id_by_filter_name(ptr noundef nonnull @.str.435)
  %70 = tail call ptr @register_capture_dissector(ptr noundef nonnull @.str.435, ptr noundef nonnull @capture_ip, i32 noundef %69)
  tail call void @capture_dissector_add_uint(ptr noundef nonnull @.str.420, i32 noundef 11, ptr noundef %70)
  ret void
}